(lp0
(iep.mvn
Mvn
p1
(dp2
S'precision'
p3
cnumpy.core.multiarray
_reconstruct
p4
(cnumpy
ndarray
p5
(I0
tp6
S'b'
p7
tp8
Rp9
(I1
(I2
I2
tp10
cnumpy
dtype
p11
(S'f8'
p12
I0
I1
tp13
Rp14
(I3
S'<'
p15
NNNI-1
I-1
I0
tp16
bI00
S'-C\x1c\xeb\xe26\x1a?\x00\x00\x00\x00\x00\x00\x00\x00\x00\x00\x00\x00\x00\x00\x00\x00-C\x1c\xeb\xe26\x1a?'
p17
tp18
bsS'weight'
p19
I1
sS'mean'
p20
g4
(g5
(I0
tp21
g7
tp22
Rp23
(I1
(I2
tp24
g14
I00
S'5\x88iU\x113\x03@T.H\xdeV\xb0\xfa?'
p25
tp26
bsba(iep.mvn
Mvn
p27
(dp28
g3
g9
sg19
I1
sg20
g4
(g5
(I0
tp29
g7
tp30
Rp31
(I1
(I2
tp32
g14
I00
S'5\x88iU\x113\x03@T.H\xdeV\xb0\xfa?'
p33
tp34
bsba(iep.mvn
Mvn
p35
(dp36
g3
g9
sg19
I1
sg20
g4
(g5
(I0
tp37
g7
tp38
Rp39
(I1
(I2
tp40
g14
I00
S'5\x88iU\x113\x03@T.H\xdeV\xb0\xfa?'
p41
tp42
bsba(iep.mvn
Mvn
p43
(dp44
g3
g9
sg19
I1
sg20
g4
(g5
(I0
tp45
g7
tp46
Rp47
(I1
(I2
tp48
g14
I00
S'5\x88iU\x113\x03@T.H\xdeV\xb0\xfa?'
p49
tp50
bsba(iep.mvn
Mvn
p51
(dp52
g3
g9
sg19
I1
sg20
g4
(g5
(I0
tp53
g7
tp54
Rp55
(I1
(I2
tp56
g14
I00
S'5\x88iU\x113\x03@T.H\xdeV\xb0\xfa?'
p57
tp58
bsba(iep.mvn
Mvn
p59
(dp60
g3
g9
sg19
I1
sg20
g4
(g5
(I0
tp61
g7
tp62
Rp63
(I1
(I2
tp64
g14
I00
S'5\x88iU\x113\x03@T.H\xdeV\xb0\xfa?'
p65
tp66
bsba(iep.mvn
Mvn
p67
(dp68
g3
g9
sg19
I1
sg20
g4
(g5
(I0
tp69
g7
tp70
Rp71
(I1
(I2
tp72
g14
I00
S'5\x88iU\x113\x03@T.H\xdeV\xb0\xfa?'
p73
tp74
bsba(iep.mvn
Mvn
p75
(dp76
g3
g9
sg19
I1
sg20
g4
(g5
(I0
tp77
g7
tp78
Rp79
(I1
(I2
tp80
g14
I00
S'5\x88iU\x113\x03@T.H\xdeV\xb0\xfa?'
p81
tp82
bsba(iep.mvn
Mvn
p83
(dp84
g3
g9
sg19
I1
sg20
g4
(g5
(I0
tp85
g7
tp86
Rp87
(I1
(I2
tp88
g14
I00
S'5\x88iU\x113\x03@T.H\xdeV\xb0\xfa?'
p89
tp90
bsba(iep.mvn
Mvn
p91
(dp92
g3
g9
sg19
I1
sg20
g4
(g5
(I0
tp93
g7
tp94
Rp95
(I1
(I2
tp96
g14
I00
S'5\x88iU\x113\x03@T.H\xdeV\xb0\xfa?'
p97
tp98
bsba(iep.mvn
Mvn
p99
(dp100
g3
g9
sg19
I1
sg20
g4
(g5
(I0
tp101
g7
tp102
Rp103
(I1
(I2
tp104
g14
I00
S'5\x88iU\x113\x03@T.H\xdeV\xb0\xfa?'
p105
tp106
bsba(iep.mvn
Mvn
p107
(dp108
g3
g9
sg19
I1
sg20
g4
(g5
(I0
tp109
g7
tp110
Rp111
(I1
(I2
tp112
g14
I00
S'5\x88iU\x113\x03@T.H\xdeV\xb0\xfa?'
p113
tp114
bsba(iep.mvn
Mvn
p115
(dp116
g3
g9
sg19
I1
sg20
g4
(g5
(I0
tp117
g7
tp118
Rp119
(I1
(I2
tp120
g14
I00
S'5\x88iU\x113\x03@T.H\xdeV\xb0\xfa?'
p121
tp122
bsba(iep.mvn
Mvn
p123
(dp124
g3
g9
sg19
I1
sg20
g4
(g5
(I0
tp125
g7
tp126
Rp127
(I1
(I2
tp128
g14
I00
S'5\x88iU\x113\x03@T.H\xdeV\xb0\xfa?'
p129
tp130
bsba(iep.mvn
Mvn
p131
(dp132
g3
g9
sg19
I1
sg20
g4
(g5
(I0
tp133
g7
tp134
Rp135
(I1
(I2
tp136
g14
I00
S'5\x88iU\x113\x03@T.H\xdeV\xb0\xfa?'
p137
tp138
bsba(iep.mvn
Mvn
p139
(dp140
g3
g9
sg19
I1
sg20
g4
(g5
(I0
tp141
g7
tp142
Rp143
(I1
(I2
tp144
g14
I00
S'5\x88iU\x113\x03@T.H\xdeV\xb0\xfa?'
p145
tp146
bsba(iep.mvn
Mvn
p147
(dp148
g3
g9
sg19
I1
sg20
g4
(g5
(I0
tp149
g7
tp150
Rp151
(I1
(I2
tp152
g14
I00
S'5\x88iU\x113\x03@T.H\xdeV\xb0\xfa?'
p153
tp154
bsba(iep.mvn
Mvn
p155
(dp156
g3
g9
sg19
I1
sg20
g4
(g5
(I0
tp157
g7
tp158
Rp159
(I1
(I2
tp160
g14
I00
S'5\x88iU\x113\x03@T.H\xdeV\xb0\xfa?'
p161
tp162
bsba(iep.mvn
Mvn
p163
(dp164
g3
g9
sg19
I1
sg20
g4
(g5
(I0
tp165
g7
tp166
Rp167
(I1
(I2
tp168
g14
I00
S'5\x88iU\x113\x03@T.H\xdeV\xb0\xfa?'
p169
tp170
bsba(iep.mvn
Mvn
p171
(dp172
g3
g9
sg19
I1
sg20
g4
(g5
(I0
tp173
g7
tp174
Rp175
(I1
(I2
tp176
g14
I00
S'5\x88iU\x113\x03@T.H\xdeV\xb0\xfa?'
p177
tp178
bsba(iep.mvn
Mvn
p179
(dp180
g3
g9
sg19
I1
sg20
g4
(g5
(I0
tp181
g7
tp182
Rp183
(I1
(I2
tp184
g14
I00
S'5\x88iU\x113\x03@T.H\xdeV\xb0\xfa?'
p185
tp186
bsba(iep.mvn
Mvn
p187
(dp188
g3
g9
sg19
I1
sg20
g4
(g5
(I0
tp189
g7
tp190
Rp191
(I1
(I2
tp192
g14
I00
S'5\x88iU\x113\x03@T.H\xdeV\xb0\xfa?'
p193
tp194
bsba(iep.mvn
Mvn
p195
(dp196
g3
g9
sg19
I1
sg20
g4
(g5
(I0
tp197
g7
tp198
Rp199
(I1
(I2
tp200
g14
I00
S'5\x88iU\x113\x03@T.H\xdeV\xb0\xfa?'
p201
tp202
bsba(iep.mvn
Mvn
p203
(dp204
g3
g9
sg19
I1
sg20
g4
(g5
(I0
tp205
g7
tp206
Rp207
(I1
(I2
tp208
g14
I00
S'5\x88iU\x113\x03@T.H\xdeV\xb0\xfa?'
p209
tp210
bsba(iep.mvn
Mvn
p211
(dp212
g3
g9
sg19
I1
sg20
g4
(g5
(I0
tp213
g7
tp214
Rp215
(I1
(I2
tp216
g14
I00
S'5\x88iU\x113\x03@T.H\xdeV\xb0\xfa?'
p217
tp218
bsba(iep.mvn
Mvn
p219
(dp220
g3
g9
sg19
I1
sg20
g4
(g5
(I0
tp221
g7
tp222
Rp223
(I1
(I2
tp224
g14
I00
S'5\x88iU\x113\x03@T.H\xdeV\xb0\xfa?'
p225
tp226
bsba(iep.mvn
Mvn
p227
(dp228
g3
g9
sg19
I1
sg20
g4
(g5
(I0
tp229
g7
tp230
Rp231
(I1
(I2
tp232
g14
I00
S'5\x88iU\x113\x03@T.H\xdeV\xb0\xfa?'
p233
tp234
bsba(iep.mvn
Mvn
p235
(dp236
g3
g9
sg19
I1
sg20
g4
(g5
(I0
tp237
g7
tp238
Rp239
(I1
(I2
tp240
g14
I00
S'5\x88iU\x113\x03@T.H\xdeV\xb0\xfa?'
p241
tp242
bsba(iep.mvn
Mvn
p243
(dp244
g3
g9
sg19
I1
sg20
g4
(g5
(I0
tp245
g7
tp246
Rp247
(I1
(I2
tp248
g14
I00
S'5\x88iU\x113\x03@T.H\xdeV\xb0\xfa?'
p249
tp250
bsba(iep.mvn
Mvn
p251
(dp252
g3
g9
sg19
I1
sg20
g4
(g5
(I0
tp253
g7
tp254
Rp255
(I1
(I2
tp256
g14
I00
S'5\x88iU\x113\x03@T.H\xdeV\xb0\xfa?'
p257
tp258
bsba(iep.mvn
Mvn
p259
(dp260
g3
g9
sg19
I1
sg20
g4
(g5
(I0
tp261
g7
tp262
Rp263
(I1
(I2
tp264
g14
I00
S'5\x88iU\x113\x03@T.H\xdeV\xb0\xfa?'
p265
tp266
bsba(iep.mvn
Mvn
p267
(dp268
g3
g9
sg19
I1
sg20
g4
(g5
(I0
tp269
g7
tp270
Rp271
(I1
(I2
tp272
g14
I00
S'5\x88iU\x113\x03@T.H\xdeV\xb0\xfa?'
p273
tp274
bsba(iep.mvn
Mvn
p275
(dp276
g3
g9
sg19
I1
sg20
g4
(g5
(I0
tp277
g7
tp278
Rp279
(I1
(I2
tp280
g14
I00
S'5\x88iU\x113\x03@T.H\xdeV\xb0\xfa?'
p281
tp282
bsba(iep.mvn
Mvn
p283
(dp284
g3
g9
sg19
I1
sg20
g4
(g5
(I0
tp285
g7
tp286
Rp287
(I1
(I2
tp288
g14
I00
S'5\x88iU\x113\x03@T.H\xdeV\xb0\xfa?'
p289
tp290
bsba(iep.mvn
Mvn
p291
(dp292
g3
g9
sg19
I1
sg20
g4
(g5
(I0
tp293
g7
tp294
Rp295
(I1
(I2
tp296
g14
I00
S'5\x88iU\x113\x03@T.H\xdeV\xb0\xfa?'
p297
tp298
bsba(iep.mvn
Mvn
p299
(dp300
g3
g9
sg19
I1
sg20
g4
(g5
(I0
tp301
g7
tp302
Rp303
(I1
(I2
tp304
g14
I00
S'5\x88iU\x113\x03@T.H\xdeV\xb0\xfa?'
p305
tp306
bsba(iep.mvn
Mvn
p307
(dp308
g3
g9
sg19
I1
sg20
g4
(g5
(I0
tp309
g7
tp310
Rp311
(I1
(I2
tp312
g14
I00
S'5\x88iU\x113\x03@T.H\xdeV\xb0\xfa?'
p313
tp314
bsba(iep.mvn
Mvn
p315
(dp316
g3
g9
sg19
I1
sg20
g4
(g5
(I0
tp317
g7
tp318
Rp319
(I1
(I2
tp320
g14
I00
S'5\x88iU\x113\x03@T.H\xdeV\xb0\xfa?'
p321
tp322
bsba(iep.mvn
Mvn
p323
(dp324
g3
g9
sg19
I1
sg20
g4
(g5
(I0
tp325
g7
tp326
Rp327
(I1
(I2
tp328
g14
I00
S'5\x88iU\x113\x03@T.H\xdeV\xb0\xfa?'
p329
tp330
bsba(iep.mvn
Mvn
p331
(dp332
g3
g9
sg19
I1
sg20
g4
(g5
(I0
tp333
g7
tp334
Rp335
(I1
(I2
tp336
g14
I00
S'5\x88iU\x113\x03@T.H\xdeV\xb0\xfa?'
p337
tp338
bsba(iep.mvn
Mvn
p339
(dp340
g3
g9
sg19
I1
sg20
g4
(g5
(I0
tp341
g7
tp342
Rp343
(I1
(I2
tp344
g14
I00
S'5\x88iU\x113\x03@T.H\xdeV\xb0\xfa?'
p345
tp346
bsba(iep.mvn
Mvn
p347
(dp348
g3
g9
sg19
I1
sg20
g4
(g5
(I0
tp349
g7
tp350
Rp351
(I1
(I2
tp352
g14
I00
S'5\x88iU\x113\x03@T.H\xdeV\xb0\xfa?'
p353
tp354
bsba(iep.mvn
Mvn
p355
(dp356
g3
g9
sg19
I1
sg20
g4
(g5
(I0
tp357
g7
tp358
Rp359
(I1
(I2
tp360
g14
I00
S'5\x88iU\x113\x03@T.H\xdeV\xb0\xfa?'
p361
tp362
bsba(iep.mvn
Mvn
p363
(dp364
g3
g9
sg19
I1
sg20
g4
(g5
(I0
tp365
g7
tp366
Rp367
(I1
(I2
tp368
g14
I00
S'5\x88iU\x113\x03@T.H\xdeV\xb0\xfa?'
p369
tp370
bsba(iep.mvn
Mvn
p371
(dp372
g3
g9
sg19
I1
sg20
g4
(g5
(I0
tp373
g7
tp374
Rp375
(I1
(I2
tp376
g14
I00
S'5\x88iU\x113\x03@T.H\xdeV\xb0\xfa?'
p377
tp378
bsba(iep.mvn
Mvn
p379
(dp380
g3
g9
sg19
I1
sg20
g4
(g5
(I0
tp381
g7
tp382
Rp383
(I1
(I2
tp384
g14
I00
S'5\x88iU\x113\x03@T.H\xdeV\xb0\xfa?'
p385
tp386
bsba(iep.mvn
Mvn
p387
(dp388
g3
g9
sg19
I1
sg20
g4
(g5
(I0
tp389
g7
tp390
Rp391
(I1
(I2
tp392
g14
I00
S'5\x88iU\x113\x03@T.H\xdeV\xb0\xfa?'
p393
tp394
bsba(iep.mvn
Mvn
p395
(dp396
g3
g9
sg19
I1
sg20
g4
(g5
(I0
tp397
g7
tp398
Rp399
(I1
(I2
tp400
g14
I00
S'5\x88iU\x113\x03@T.H\xdeV\xb0\xfa?'
p401
tp402
bsba(iep.mvn
Mvn
p403
(dp404
g3
g9
sg19
I1
sg20
g4
(g5
(I0
tp405
g7
tp406
Rp407
(I1
(I2
tp408
g14
I00
S'5\x88iU\x113\x03@T.H\xdeV\xb0\xfa?'
p409
tp410
bsba(iep.mvn
Mvn
p411
(dp412
g3
g9
sg19
I1
sg20
g4
(g5
(I0
tp413
g7
tp414
Rp415
(I1
(I2
tp416
g14
I00
S'5\x88iU\x113\x03@T.H\xdeV\xb0\xfa?'
p417
tp418
bsba(iep.mvn
Mvn
p419
(dp420
g3
g9
sg19
I1
sg20
g4
(g5
(I0
tp421
g7
tp422
Rp423
(I1
(I2
tp424
g14
I00
S'5\x88iU\x113\x03@T.H\xdeV\xb0\xfa?'
p425
tp426
bsba(iep.mvn
Mvn
p427
(dp428
g3
g9
sg19
I1
sg20
g4
(g5
(I0
tp429
g7
tp430
Rp431
(I1
(I2
tp432
g14
I00
S'5\x88iU\x113\x03@T.H\xdeV\xb0\xfa?'
p433
tp434
bsba(iep.mvn
Mvn
p435
(dp436
g3
g9
sg19
I1
sg20
g4
(g5
(I0
tp437
g7
tp438
Rp439
(I1
(I2
tp440
g14
I00
S'5\x88iU\x113\x03@T.H\xdeV\xb0\xfa?'
p441
tp442
bsba(iep.mvn
Mvn
p443
(dp444
g3
g9
sg19
I1
sg20
g4
(g5
(I0
tp445
g7
tp446
Rp447
(I1
(I2
tp448
g14
I00
S'5\x88iU\x113\x03@T.H\xdeV\xb0\xfa?'
p449
tp450
bsba(iep.mvn
Mvn
p451
(dp452
g3
g9
sg19
I1
sg20
g4
(g5
(I0
tp453
g7
tp454
Rp455
(I1
(I2
tp456
g14
I00
S'5\x88iU\x113\x03@T.H\xdeV\xb0\xfa?'
p457
tp458
bsba(iep.mvn
Mvn
p459
(dp460
g3
g9
sg19
I1
sg20
g4
(g5
(I0
tp461
g7
tp462
Rp463
(I1
(I2
tp464
g14
I00
S'5\x88iU\x113\x03@T.H\xdeV\xb0\xfa?'
p465
tp466
bsba(iep.mvn
Mvn
p467
(dp468
g3
g9
sg19
I1
sg20
g4
(g5
(I0
tp469
g7
tp470
Rp471
(I1
(I2
tp472
g14
I00
S'5\x88iU\x113\x03@T.H\xdeV\xb0\xfa?'
p473
tp474
bsba(iep.mvn
Mvn
p475
(dp476
g3
g9
sg19
I1
sg20
g4
(g5
(I0
tp477
g7
tp478
Rp479
(I1
(I2
tp480
g14
I00
S'5\x88iU\x113\x03@T.H\xdeV\xb0\xfa?'
p481
tp482
bsba(iep.mvn
Mvn
p483
(dp484
g3
g9
sg19
I1
sg20
g4
(g5
(I0
tp485
g7
tp486
Rp487
(I1
(I2
tp488
g14
I00
S'5\x88iU\x113\x03@T.H\xdeV\xb0\xfa?'
p489
tp490
bsba(iep.mvn
Mvn
p491
(dp492
g3
g9
sg19
I1
sg20
g4
(g5
(I0
tp493
g7
tp494
Rp495
(I1
(I2
tp496
g14
I00
S'5\x88iU\x113\x03@T.H\xdeV\xb0\xfa?'
p497
tp498
bsba(iep.mvn
Mvn
p499
(dp500
g3
g9
sg19
I1
sg20
g4
(g5
(I0
tp501
g7
tp502
Rp503
(I1
(I2
tp504
g14
I00
S'5\x88iU\x113\x03@T.H\xdeV\xb0\xfa?'
p505
tp506
bsba(iep.mvn
Mvn
p507
(dp508
g3
g9
sg19
I1
sg20
g4
(g5
(I0
tp509
g7
tp510
Rp511
(I1
(I2
tp512
g14
I00
S'5\x88iU\x113\x03@T.H\xdeV\xb0\xfa?'
p513
tp514
bsba(iep.mvn
Mvn
p515
(dp516
g3
g9
sg19
I1
sg20
g4
(g5
(I0
tp517
g7
tp518
Rp519
(I1
(I2
tp520
g14
I00
S'5\x88iU\x113\x03@T.H\xdeV\xb0\xfa?'
p521
tp522
bsba(iep.mvn
Mvn
p523
(dp524
g3
g9
sg19
I1
sg20
g4
(g5
(I0
tp525
g7
tp526
Rp527
(I1
(I2
tp528
g14
I00
S'5\x88iU\x113\x03@T.H\xdeV\xb0\xfa?'
p529
tp530
bsba(iep.mvn
Mvn
p531
(dp532
g3
g9
sg19
I1
sg20
g4
(g5
(I0
tp533
g7
tp534
Rp535
(I1
(I2
tp536
g14
I00
S'5\x88iU\x113\x03@T.H\xdeV\xb0\xfa?'
p537
tp538
bsba(iep.mvn
Mvn
p539
(dp540
g3
g9
sg19
I1
sg20
g4
(g5
(I0
tp541
g7
tp542
Rp543
(I1
(I2
tp544
g14
I00
S'5\x88iU\x113\x03@T.H\xdeV\xb0\xfa?'
p545
tp546
bsba(iep.mvn
Mvn
p547
(dp548
g3
g9
sg19
I1
sg20
g4
(g5
(I0
tp549
g7
tp550
Rp551
(I1
(I2
tp552
g14
I00
S'5\x88iU\x113\x03@T.H\xdeV\xb0\xfa?'
p553
tp554
bsba(iep.mvn
Mvn
p555
(dp556
g3
g9
sg19
I1
sg20
g4
(g5
(I0
tp557
g7
tp558
Rp559
(I1
(I2
tp560
g14
I00
S'5\x88iU\x113\x03@T.H\xdeV\xb0\xfa?'
p561
tp562
bsba(iep.mvn
Mvn
p563
(dp564
g3
g9
sg19
I1
sg20
g4
(g5
(I0
tp565
g7
tp566
Rp567
(I1
(I2
tp568
g14
I00
S'5\x88iU\x113\x03@T.H\xdeV\xb0\xfa?'
p569
tp570
bsba(iep.mvn
Mvn
p571
(dp572
g3
g9
sg19
I1
sg20
g4
(g5
(I0
tp573
g7
tp574
Rp575
(I1
(I2
tp576
g14
I00
S'5\x88iU\x113\x03@T.H\xdeV\xb0\xfa?'
p577
tp578
bsba(iep.mvn
Mvn
p579
(dp580
g3
g9
sg19
I1
sg20
g4
(g5
(I0
tp581
g7
tp582
Rp583
(I1
(I2
tp584
g14
I00
S'5\x88iU\x113\x03@T.H\xdeV\xb0\xfa?'
p585
tp586
bsba(iep.mvn
Mvn
p587
(dp588
g3
g9
sg19
I1
sg20
g4
(g5
(I0
tp589
g7
tp590
Rp591
(I1
(I2
tp592
g14
I00
S'5\x88iU\x113\x03@T.H\xdeV\xb0\xfa?'
p593
tp594
bsba(iep.mvn
Mvn
p595
(dp596
g3
g9
sg19
I1
sg20
g4
(g5
(I0
tp597
g7
tp598
Rp599
(I1
(I2
tp600
g14
I00
S'5\x88iU\x113\x03@T.H\xdeV\xb0\xfa?'
p601
tp602
bsba(iep.mvn
Mvn
p603
(dp604
g3
g9
sg19
I1
sg20
g4
(g5
(I0
tp605
g7
tp606
Rp607
(I1
(I2
tp608
g14
I00
S'5\x88iU\x113\x03@T.H\xdeV\xb0\xfa?'
p609
tp610
bsba(iep.mvn
Mvn
p611
(dp612
g3
g9
sg19
I1
sg20
g4
(g5
(I0
tp613
g7
tp614
Rp615
(I1
(I2
tp616
g14
I00
S'5\x88iU\x113\x03@T.H\xdeV\xb0\xfa?'
p617
tp618
bsba(iep.mvn
Mvn
p619
(dp620
g3
g9
sg19
I1
sg20
g4
(g5
(I0
tp621
g7
tp622
Rp623
(I1
(I2
tp624
g14
I00
S'5\x88iU\x113\x03@T.H\xdeV\xb0\xfa?'
p625
tp626
bsba(iep.mvn
Mvn
p627
(dp628
g3
g9
sg19
I1
sg20
g4
(g5
(I0
tp629
g7
tp630
Rp631
(I1
(I2
tp632
g14
I00
S'5\x88iU\x113\x03@T.H\xdeV\xb0\xfa?'
p633
tp634
bsba(iep.mvn
Mvn
p635
(dp636
g3
g9
sg19
I1
sg20
g4
(g5
(I0
tp637
g7
tp638
Rp639
(I1
(I2
tp640
g14
I00
S'5\x88iU\x113\x03@T.H\xdeV\xb0\xfa?'
p641
tp642
bsba(iep.mvn
Mvn
p643
(dp644
g3
g9
sg19
I1
sg20
g4
(g5
(I0
tp645
g7
tp646
Rp647
(I1
(I2
tp648
g14
I00
S'5\x88iU\x113\x03@T.H\xdeV\xb0\xfa?'
p649
tp650
bsba(iep.mvn
Mvn
p651
(dp652
g3
g9
sg19
I1
sg20
g4
(g5
(I0
tp653
g7
tp654
Rp655
(I1
(I2
tp656
g14
I00
S'5\x88iU\x113\x03@T.H\xdeV\xb0\xfa?'
p657
tp658
bsba(iep.mvn
Mvn
p659
(dp660
g3
g9
sg19
I1
sg20
g4
(g5
(I0
tp661
g7
tp662
Rp663
(I1
(I2
tp664
g14
I00
S'5\x88iU\x113\x03@T.H\xdeV\xb0\xfa?'
p665
tp666
bsba(iep.mvn
Mvn
p667
(dp668
g3
g9
sg19
I1
sg20
g4
(g5
(I0
tp669
g7
tp670
Rp671
(I1
(I2
tp672
g14
I00
S'5\x88iU\x113\x03@T.H\xdeV\xb0\xfa?'
p673
tp674
bsba(iep.mvn
Mvn
p675
(dp676
g3
g9
sg19
I1
sg20
g4
(g5
(I0
tp677
g7
tp678
Rp679
(I1
(I2
tp680
g14
I00
S'5\x88iU\x113\x03@T.H\xdeV\xb0\xfa?'
p681
tp682
bsba(iep.mvn
Mvn
p683
(dp684
g3
g9
sg19
I1
sg20
g4
(g5
(I0
tp685
g7
tp686
Rp687
(I1
(I2
tp688
g14
I00
S'5\x88iU\x113\x03@T.H\xdeV\xb0\xfa?'
p689
tp690
bsba(iep.mvn
Mvn
p691
(dp692
g3
g9
sg19
I1
sg20
g4
(g5
(I0
tp693
g7
tp694
Rp695
(I1
(I2
tp696
g14
I00
S'5\x88iU\x113\x03@T.H\xdeV\xb0\xfa?'
p697
tp698
bsba(iep.mvn
Mvn
p699
(dp700
g3
g9
sg19
I1
sg20
g4
(g5
(I0
tp701
g7
tp702
Rp703
(I1
(I2
tp704
g14
I00
S'5\x88iU\x113\x03@T.H\xdeV\xb0\xfa?'
p705
tp706
bsba(iep.mvn
Mvn
p707
(dp708
g3
g9
sg19
I1
sg20
g4
(g5
(I0
tp709
g7
tp710
Rp711
(I1
(I2
tp712
g14
I00
S'5\x88iU\x113\x03@T.H\xdeV\xb0\xfa?'
p713
tp714
bsba(iep.mvn
Mvn
p715
(dp716
g3
g9
sg19
I1
sg20
g4
(g5
(I0
tp717
g7
tp718
Rp719
(I1
(I2
tp720
g14
I00
S'5\x88iU\x113\x03@T.H\xdeV\xb0\xfa?'
p721
tp722
bsba(iep.mvn
Mvn
p723
(dp724
g3
g9
sg19
I1
sg20
g4
(g5
(I0
tp725
g7
tp726
Rp727
(I1
(I2
tp728
g14
I00
S'5\x88iU\x113\x03@T.H\xdeV\xb0\xfa?'
p729
tp730
bsba(iep.mvn
Mvn
p731
(dp732
g3
g9
sg19
I1
sg20
g4
(g5
(I0
tp733
g7
tp734
Rp735
(I1
(I2
tp736
g14
I00
S'5\x88iU\x113\x03@T.H\xdeV\xb0\xfa?'
p737
tp738
bsba(iep.mvn
Mvn
p739
(dp740
g3
g9
sg19
I1
sg20
g4
(g5
(I0
tp741
g7
tp742
Rp743
(I1
(I2
tp744
g14
I00
S'5\x88iU\x113\x03@T.H\xdeV\xb0\xfa?'
p745
tp746
bsba(iep.mvn
Mvn
p747
(dp748
g3
g9
sg19
I1
sg20
g4
(g5
(I0
tp749
g7
tp750
Rp751
(I1
(I2
tp752
g14
I00
S'5\x88iU\x113\x03@T.H\xdeV\xb0\xfa?'
p753
tp754
bsba(iep.mvn
Mvn
p755
(dp756
g3
g9
sg19
I1
sg20
g4
(g5
(I0
tp757
g7
tp758
Rp759
(I1
(I2
tp760
g14
I00
S'5\x88iU\x113\x03@T.H\xdeV\xb0\xfa?'
p761
tp762
bsba(iep.mvn
Mvn
p763
(dp764
g3
g9
sg19
I1
sg20
g4
(g5
(I0
tp765
g7
tp766
Rp767
(I1
(I2
tp768
g14
I00
S'5\x88iU\x113\x03@T.H\xdeV\xb0\xfa?'
p769
tp770
bsba(iep.mvn
Mvn
p771
(dp772
g3
g9
sg19
I1
sg20
g4
(g5
(I0
tp773
g7
tp774
Rp775
(I1
(I2
tp776
g14
I00
S'5\x88iU\x113\x03@T.H\xdeV\xb0\xfa?'
p777
tp778
bsba(iep.mvn
Mvn
p779
(dp780
g3
g9
sg19
I1
sg20
g4
(g5
(I0
tp781
g7
tp782
Rp783
(I1
(I2
tp784
g14
I00
S'5\x88iU\x113\x03@T.H\xdeV\xb0\xfa?'
p785
tp786
bsba(iep.mvn
Mvn
p787
(dp788
g3
g9
sg19
I1
sg20
g4
(g5
(I0
tp789
g7
tp790
Rp791
(I1
(I2
tp792
g14
I00
S'5\x88iU\x113\x03@T.H\xdeV\xb0\xfa?'
p793
tp794
bsba(iep.mvn
Mvn
p795
(dp796
g3
g9
sg19
I1
sg20
g4
(g5
(I0
tp797
g7
tp798
Rp799
(I1
(I2
tp800
g14
I00
S'5\x88iU\x113\x03@T.H\xdeV\xb0\xfa?'
p801
tp802
bsba(iep.mvn
Mvn
p803
(dp804
g3
g9
sg19
I1
sg20
g4
(g5
(I0
tp805
g7
tp806
Rp807
(I1
(I2
tp808
g14
I00
S'5\x88iU\x113\x03@T.H\xdeV\xb0\xfa?'
p809
tp810
bsba(iep.mvn
Mvn
p811
(dp812
g3
g4
(g5
(I0
tp813
g7
tp814
Rp815
(I1
(I2
I2
tp816
g14
I00
S'\xc5>\xbcX8J*?\xb4\x01\xc1\xfb\xee\x11Z\xbe\xb4\x01\xc1\xfb\xee\x11Z\xbe\xf1\x8f\xb623J*?'
p817
tp818
bsg19
I1
sg20
g4
(g5
(I0
tp819
g7
tp820
Rp821
(I1
(I2
tp822
g14
I00
S'\xbb\xbf\xd0V\xfd^\xb5\xbfF\xae\x1dc\xfel\xaa\xbf'
p823
tp824
bsba.